target datalayout = "e-m:e-p270:32:32-p271:32:32-p272:64:64-i64:64-i128:128-f80:128-n8:16:32:64-S128"
target triple = "x86_64-pc-linux-gnu"

%class.outputStream = type { ptr, i32, i8, i32, i64, %class.TimeStamp, ptr, i64 }
%class.TimeStamp = type { i64 }
%class.fileStream = type <{ %class.outputStream, ptr, i8, [7 x i8] }>

@_ZTV10fileStream = hidden unnamed_addr constant { [7 x ptr] } { [7 x ptr] [ptr null, ptr null, ptr @_ZN10fileStream5flushEv, ptr @_ZN10fileStream5writeEPKcm, ptr @_ZN12outputStream10rotate_logEbPS_, ptr @_ZN10fileStreamD1Ev, ptr @_ZN10fileStreamD0Ev] }, align 8

; Function Attrs: mustprogress nounwind uwtable
define linkonce_odr hidden void @_ZN12outputStreamD2Ev(ptr noundef nonnull align 8 dereferenceable(56) %0) unnamed_addr #1 comdat align 2 {
  %2 = alloca ptr, align 8
  store ptr %0, ptr %2, align 8
  ret void
}

; Function Attrs: mustprogress nounwind uwtable
define linkonce_odr hidden void @_ZN10fileStream5closeEv(ptr noundef nonnull align 8 dereferenceable(65) %0) #1 comdat align 2 {
  %2 = alloca ptr, align 8
  store ptr %0, ptr %2, align 8
  %3 = load ptr, ptr %2, align 8
  %4 = getelementptr inbounds %class.fileStream, ptr %3, i32 0, i32 1
  %5 = load ptr, ptr %4, align 8
  %6 = icmp eq ptr %5, null
  br i1 %6, label %11, label %7

7:                                                ; preds = %1
  %8 = getelementptr inbounds %class.fileStream, ptr %3, i32 0, i32 2
  %9 = load i8, ptr %8, align 8
  %10 = trunc i8 %9 to i1
  br i1 %10, label %12, label %11

11:                                               ; preds = %7, %1
  br label %17

12:                                               ; preds = %7
  %13 = getelementptr inbounds %class.fileStream, ptr %3, i32 0, i32 1
  %14 = load ptr, ptr %13, align 8
  %15 = call i32 @fclose(ptr noundef %14)
  %16 = getelementptr inbounds %class.fileStream, ptr %3, i32 0, i32 2
  store i8 0, ptr %16, align 8
  br label %17

17:                                               ; preds = %12, %11
  ret void
}

; Function Attrs: mustprogress nounwind uwtable
define hidden void @_ZN10fileStreamD2Ev(ptr noundef nonnull align 8 dereferenceable(65) %0) unnamed_addr #1 align 2 {
  %2 = alloca ptr, align 8
  store ptr %0, ptr %2, align 8
  %3 = load ptr, ptr %2, align 8
  store ptr getelementptr inbounds inrange(-16, 40) ({ [7 x ptr] }, ptr @_ZTV10fileStream, i32 0, i32 0, i32 2), ptr %3, align 8
  %4 = getelementptr inbounds %class.fileStream, ptr %3, i32 0, i32 1
  %5 = load ptr, ptr %4, align 8
  %6 = icmp ne ptr %5, null
  br i1 %6, label %7, label %9

7:                                                ; preds = %1
  call void @_ZN10fileStream5closeEv(ptr noundef nonnull align 8 dereferenceable(65) %3)
  %8 = getelementptr inbounds %class.fileStream, ptr %3, i32 0, i32 1
  store ptr null, ptr %8, align 8
  br label %9

9:                                                ; preds = %7, %1
  call void @_ZN12outputStreamD2Ev(ptr noundef nonnull align 8 dereferenceable(56) %3) #6
  ret void
}